; Function Attrs: nounwind uwtable
define hidden i32 @mbedtls_rsa_rsassa_pss_sign(ptr noundef %0, ptr noundef %1, ptr noundef %2, i32 noundef %3, i32 noundef %4, ptr noundef %5, ptr noundef %6) local_unnamed_addr #0 {
  %8 = getelementptr inbounds nuw i8, ptr %0, i64 224
  %9 = load i32, ptr %8, align 8, !tbaa !17
  %.not.i = icmp eq i32 %9, 1
  br i1 %.not.i, label %10, label %rsa_rsassa_pss_sign.exit

10:                                               ; preds = %7
  %11 = getelementptr inbounds nuw i8, ptr %0, i64 228
  %12 = load i32, ptr %11, align 4, !tbaa !18
  %13 = or i32 %12, %3
  %or.cond.i = icmp eq i32 %13, 0
  br i1 %or.cond.i, label %rsa_rsassa_pss_sign.exit, label %14

14:                                               ; preds = %10
  %15 = tail call fastcc i32 @rsa_rsassa_pss_sign_no_mode_check(ptr noundef nonnull %0, ptr noundef %1, ptr noundef %2, i32 noundef %3, i32 noundef %4, ptr noundef %5, i32 noundef -1, ptr noundef %6)
  br label %rsa_rsassa_pss_sign.exit

rsa_rsassa_pss_sign.exit:                         ; preds = %7, %10, %14
  %.0.i = phi i32 [ %15, %14 ], [ -16512, %7 ], [ -16512, %10 ]
  ret i32 %.0.i
}